; Function Attrs: mustprogress nounwind uwtable
define noundef zeroext i16 @_ZNK6icu_756number4impl17ParsedPatternInfo6charAtEii(ptr nocapture noundef nonnull readonly align 8 dereferenceable(433) %this, i32 noundef %flags, i32 noundef %index) unnamed_addr #0 align 2 {
entry:
  %and.i = and i32 %flags, 256
  %cmp.not.i = icmp eq i32 %and.i, 0
  %and2.i = and i32 %flags, 512
  %cmp3.not.i = icmp eq i32 %and2.i, 0
  %0 = and i32 %flags, 1536
  %brmerge.not.i = icmp eq i32 %0, 1536
  br i1 %brmerge.not.i, label %_ZNK6icu_756number4impl17ParsedPatternInfo12getEndpointsEi.exit, label %if.else.i

if.else.i:                                        ; preds = %entry
  %and5.i = and i32 %flags, 1024
  %cmp6.not.i = icmp eq i32 %and5.i, 0
  br i1 %cmp6.not.i, label %if.else12.i, label %_ZNK6icu_756number4impl17ParsedPatternInfo12getEndpointsEi.exit

if.else12.i:                                      ; preds = %if.else.i
  %1 = and i32 %flags, 768
  %brmerge7.not.i = icmp eq i32 %1, 768
  br i1 %brmerge7.not.i, label %_ZNK6icu_756number4impl17ParsedPatternInfo12getEndpointsEi.exit, label %if.else18.i

if.else18.i:                                      ; preds = %if.else12.i
  %..i = select i1 %cmp3.not.i, i64 224, i64 392
  %spec.select.i = select i1 %cmp.not.i, i64 %..i, i64 216
  br label %_ZNK6icu_756number4impl17ParsedPatternInfo12getEndpointsEi.exit

_ZNK6icu_756number4impl17ParsedPatternInfo12getEndpointsEi.exit: ; preds = %entry, %if.else.i, %if.else12.i, %if.else18.i
  %.sink.i = phi i64 [ 400, %entry ], [ 232, %if.else.i ], [ 384, %if.else12.i ], [ %spec.select.i, %if.else18.i ]
  %cmp = icmp slt i32 %index, 0
  br i1 %cmp, label %if.then, label %lor.lhs.false

lor.lhs.false:                                    ; preds = %_ZNK6icu_756number4impl17ParsedPatternInfo12getEndpointsEi.exit
  %suffixEndpoints29.i = getelementptr inbounds i8, ptr %this, i64 %.sink.i
  %end = getelementptr inbounds i8, ptr %suffixEndpoints29.i, i64 4
  %2 = load i32, ptr %end, align 4
  %3 = load i32, ptr %suffixEndpoints29.i, align 4
  %sub = sub nsw i32 %2, %3
  %cmp2.not = icmp sgt i32 %sub, %index
  br i1 %cmp2.not, label %if.end, label %if.then

if.then:                                          ; preds = %lor.lhs.false, %_ZNK6icu_756number4impl17ParsedPatternInfo12getEndpointsEi.exit
  tail call void @abort() #15
  unreachable

if.end:                                           ; preds = %lor.lhs.false
  %add = add nsw i32 %3, %index
  %fUnion.i.i.i.i = getelementptr inbounds i8, ptr %this, i64 16
  %4 = load i16, ptr %fUnion.i.i.i.i, align 8
  %cmp.i.i.i.i = icmp slt i16 %4, 0
  %5 = ashr i16 %4, 5
  %shr.i.i.i.i = sext i16 %5 to i32
  %fLength.i.i.i = getelementptr inbounds i8, ptr %this, i64 20
  %6 = load i32, ptr %fLength.i.i.i, align 4
  %cond.i.i.i = select i1 %cmp.i.i.i.i, i32 %6, i32 %shr.i.i.i.i
  %cmp.i.i = icmp ugt i32 %cond.i.i.i, %add
  br i1 %cmp.i.i, label %if.then.i.i, label %_ZNK6icu_7513UnicodeString6charAtEi.exit

if.then.i.i:                                      ; preds = %if.end
  %7 = and i16 %4, 2
  %tobool.not.i.i.i = icmp eq i16 %7, 0
  %fBuffer.i.i.i = getelementptr inbounds i8, ptr %this, i64 18
  %fArray.i.i.i = getelementptr inbounds i8, ptr %this, i64 32
  %8 = load ptr, ptr %fArray.i.i.i, align 8
  %cond.i2.i.i = select i1 %tobool.not.i.i.i, ptr %8, ptr %fBuffer.i.i.i
  %idxprom.i.i = sext i32 %add to i64
  %arrayidx.i.i = getelementptr inbounds i16, ptr %cond.i2.i.i, i64 %idxprom.i.i
  %9 = load i16, ptr %arrayidx.i.i, align 2
  br label %_ZNK6icu_7513UnicodeString6charAtEi.exit

_ZNK6icu_7513UnicodeString6charAtEi.exit:         ; preds = %if.end, %if.then.i.i
  %retval.0.i.i = phi i16 [ %9, %if.then.i.i ], [ -1, %if.end ]
  ret i16 %retval.0.i.i
}